(lp1
(dp2
S'src'
p3
(lp4
(I0
I7
tp5
asS'form'
p6
(ishare
eqn
p7
(dp8
S'kind'
p9
S'pow'
p10
sS'weight'
p11
I1
sS'coef'
p12
I2
sbsa(dp13
g3
(lp14
(I1
I7
tp15
asg6
g7
sa(dp16
g3
(lp17
(I5
I7
tp18
asg6
g7
sa(dp19
g3
(lp20
(I6
I7
tp21
asg6
g7
sa(dp22
g3
(lp23
(I7
I7
tp24
asg6
g7
sa(dp25
g3
(lp26
(I8
I7
tp27
asg6
g7
sa(dp28
g3
(lp29
(I9
I7
tp30
asg6
g7
sa(dp31
g3
(lp32
(I12
I7
tp33
asg6
g7
sa(dp34
g3
(lp35
(I0
I8
tp36
asg6
g7
sa(dp37
g3
(lp38
(I1
I8
tp39
asg6
g7
sa(dp40
g3
(lp41
(I5
I8
tp42
asg6
g7
sa(dp43
g3
(lp44
(I6
I8
tp45
asg6
g7
sa(dp46
g3
(lp47
(I7
I8
tp48
asg6
g7
sa(dp49
g3
(lp50
(I8
I8
tp51
asg6
g7
sa(dp52
g3
(lp53
(I9
I8
tp54
asg6
g7
sa(dp55
g3
(lp56
(I12
I8
tp57
asg6
g7
sa(dp58
g3
(lp59
(I0
I2
tp60
asg6
I0
sa(dp61
g3
(lp62
(I1
I2
tp63
asg6
I0
sa(dp64
g3
(lp65
(I5
I2
tp66
asg6
I0
sa(dp67
g3
(lp68
(I6
I2
tp69
asg6
I0
sa(dp70
g3
(lp71
(I7
I2
tp72
asg6
I0
sa(dp73
g3
(lp74
(I8
I2
tp75
asg6
I0
sa(dp76
g3
(lp77
(I9
I2
tp78
asg6
I0
sa(dp79
g3
(lp80
(I12
I2
tp81
asg6
I0
sa(dp82
g3
(lp83
(I0
I3
tp84
asg6
I0
sa(dp85
g3
(lp86
(I1
I3
tp87
asg6
I0
sa(dp88
g3
(lp89
(I5
I3
tp90
asg6
I0
sa(dp91
g3
(lp92
(I6
I3
tp93
asg6
I0
sa(dp94
g3
(lp95
(I7
I3
tp96
asg6
I0
sa(dp97
g3
(lp98
(I8
I3
tp99
asg6
I0
sa(dp100
g3
(lp101
(I9
I3
tp102
asg6
I0
sa(dp103
g3
(lp104
(I12
I3
tp105
asg6
I0
sa(dp106
g3
(lp107
(I0
I4
tp108
asg6
I0
sa(dp109
g3
(lp110
(I1
I4
tp111
asg6
I0
sa(dp112
g3
(lp113
(I5
I4
tp114
asg6
I0
sa(dp115
g3
(lp116
(I6
I4
tp117
asg6
I0
sa(dp118
g3
(lp119
(I7
I4
tp120
asg6
I0
sa(dp121
g3
(lp122
(I8
I4
tp123
asg6
I0
sa(dp124
g3
(lp125
(I9
I4
tp126
asg6
I0
sa(dp127
g3
(lp128
(I12
I4
tp129
asg6
I0
sa(dp130
g3
(lp131
(I0
I5
tp132
asg6
I0
sa(dp133
g3
(lp134
(I1
I5
tp135
asg6
I0
sa(dp136
g3
(lp137
(I5
I5
tp138
asg6
I0
sa(dp139
g3
(lp140
(I6
I5
tp141
asg6
I0
sa(dp142
g3
(lp143
(I7
I5
tp144
asg6
I0
sa(dp145
g3
(lp146
(I8
I5
tp147
asg6
I0
sa(dp148
g3
(lp149
(I9
I5
tp150
asg6
I0
sa(dp151
g3
(lp152
(I12
I5
tp153
asg6
I0
sa(dp154
g3
(lp155
(I0
I6
tp156
asg6
I0
sa(dp157
g3
(lp158
(I1
I6
tp159
asg6
I0
sa(dp160
g3
(lp161
(I5
I6
tp162
asg6
I0
sa(dp163
g3
(lp164
(I6
I6
tp165
asg6
I0
sa(dp166
g3
(lp167
(I7
I6
tp168
asg6
I0
sa(dp169
g3
(lp170
(I8
I6
tp171
asg6
I0
sa(dp172
g3
(lp173
(I9
I6
tp174
asg6
I0
sa(dp175
g3
(lp176
(I12
I6
tp177
asg6
I0
sa(dp178
g3
(lp179
(I0
I7
tp180
asg6
I0
sa(dp181
g3
(lp182
(I1
I7
tp183
asg6
I0
sa(dp184
g3
(lp185
(I5
I7
tp186
asg6
I0
sa(dp187
g3
(lp188
(I6
I7
tp189
asg6
I0
sa(dp190
g3
(lp191
(I7
I7
tp192
asg6
I0
sa(dp193
g3
(lp194
(I8
I7
tp195
asg6
I0
sa(dp196
g3
(lp197
(I9
I7
tp198
asg6
I0
sa(dp199
g3
(lp200
(I12
I7
tp201
asg6
I0
sa(dp202
g3
(lp203
(I0
I8
tp204
asg6
I0
sa(dp205
g3
(lp206
(I1
I8
tp207
asg6
I0
sa(dp208
g3
(lp209
(I5
I8
tp210
asg6
I0
sa(dp211
g3
(lp212
(I6
I8
tp213
asg6
I0
sa(dp214
g3
(lp215
(I7
I8
tp216
asg6
I0
sa(dp217
g3
(lp218
(I8
I8
tp219
asg6
I0
sa(dp220
g3
(lp221
(I9
I8
tp222
asg6
I0
sa(dp223
g3
(lp224
(I12
I8
tp225
asg6
I0
sa.