(lp1
(dp2
S'src'
p3
(lp4
(I0
I0
tp5
asS'form'
p6
I0
sa(dp7
g3
(lp8
(I0
I0
tp9
asg6
(ishare
eqn
p10
(dp11
S'kind'
p12
S'pow'
p13
sS'weight'
p14
I1
sS'coef'
p15
I2
sbsa(dp16
g3
(lp17
(I0
I1
tp18
asg6
I0
sa(dp19
g3
(lp20
(I0
I1
tp21
asg6
(ishare
eqn
p22
(dp23
g12
g13
sg14
I1
sg15
I2
sbsa(dp24
g3
(lp25
(I0
I2
tp26
asg6
I0
sa(dp27
g3
(lp28
(I0
I2
tp29
asg6
(ishare
eqn
p30
(dp31
g12
g13
sg14
I1
sg15
I2
sbsa(dp32
g3
(lp33
(I0
I3
tp34
asg6
I0
sa(dp35
g3
(lp36
(I0
I3
tp37
asg6
(ishare
eqn
p38
(dp39
g12
g13
sg14
I1
sg15
I2
sbsa(dp40
g3
(lp41
(I0
I4
tp42
asg6
I0
sa(dp43
g3
(lp44
(I0
I4
tp45
asg6
(ishare
eqn
p46
(dp47
g12
g13
sg14
I1
sg15
I2
sbsa(dp48
g3
(lp49
(I0
I5
tp50
asg6
I0
sa(dp51
g3
(lp52
(I0
I5
tp53
asg6
(ishare
eqn
p54
(dp55
g12
g13
sg14
I1
sg15
I2
sbsa(dp56
g3
(lp57
(I0
I6
tp58
asg6
I0
sa(dp59
g3
(lp60
(I0
I6
tp61
asg6
(ishare
eqn
p62
(dp63
g12
g13
sg14
I1
sg15
I2
sbsa(dp64
g3
(lp65
(I0
I7
tp66
asg6
I0
sa(dp67
g3
(lp68
(I0
I7
tp69
asg6
(ishare
eqn
p70
(dp71
g12
g13
sg14
I1
sg15
I2
sbsa(dp72
g3
(lp73
(I0
I8
tp74
asg6
I0
sa(dp75
g3
(lp76
(I0
I8
tp77
asg6
(ishare
eqn
p78
(dp79
g12
g13
sg14
I1
sg15
I2
sbsa(dp80
g3
(lp81
(I2
I6
tp82
asg6
I0
sa(dp83
g3
(lp84
(I2
I7
tp85
asg6
I0
sa(dp86
g3
(lp87
(I2
I8
tp88
asg6
I0
sa(dp89
g3
(lp90
(I3
I6
tp91
asg6
I0
sa(dp92
g3
(lp93
(I3
I7
tp94
asg6
I0
sa(dp95
g3
(lp96
(I3
I8
tp97
asg6
I0
sa(dp98
g3
(lp99
(I4
I6
tp100
asg6
I0
sa(dp101
g3
(lp102
(I4
I7
tp103
asg6
I0
sa(dp104
g3
(lp105
(I4
I8
tp106
asg6
I0
sa(dp107
g3
(lp108
(I5
I6
tp109
asg6
I0
sa(dp110
g3
(lp111
(I5
I7
tp112
asg6
I0
sa(dp113
g3
(lp114
(I5
I8
tp115
asg6
I0
sa(dp116
g3
(lp117
(I6
I6
tp118
asg6
I0
sa(dp119
g3
(lp120
(I6
I7
tp121
asg6
I0
sa(dp122
g3
(lp123
(I6
I8
tp124
asg6
I0
sa(dp125
g3
(lp126
(I7
I6
tp127
asg6
I0
sa(dp128
g3
(lp129
(I7
I7
tp130
asg6
I0
sa(dp131
g3
(lp132
(I7
I8
tp133
asg6
I0
sa(dp134
g3
(lp135
(I8
I6
tp136
asg6
I0
sa(dp137
g3
(lp138
(I8
I7
tp139
asg6
I0
sa(dp140
g3
(lp141
(I8
I8
tp142
asg6
I0
sa(dp143
g3
(lp144
(I9
I6
tp145
asg6
I0
sa(dp146
g3
(lp147
(I9
I7
tp148
asg6
I0
sa(dp149
g3
(lp150
(I9
I8
tp151
asg6
I0
sa(dp152
g3
(lp153
(I10
I6
tp154
asg6
I0
sa(dp155
g3
(lp156
(I10
I7
tp157
asg6
I0
sa(dp158
g3
(lp159
(I10
I8
tp160
asg6
I0
sa(dp161
g3
(lp162
(I11
I6
tp163
asg6
I0
sa(dp164
g3
(lp165
(I11
I7
tp166
asg6
I0
sa(dp167
g3
(lp168
(I11
I8
tp169
asg6
I0
sa(dp170
g3
(lp171
(I12
I6
tp172
asg6
I0
sa(dp173
g3
(lp174
(I12
I7
tp175
asg6
I0
sa(dp176
g3
(lp177
(I12
I8
tp178
asg6
I0
sa.