(dp1
S'WIND_SPEED'
p2
I16
sS'WD_HR'
p3
I14
sS'CO'
p4
I3
sS'AMB_TEMP'
p5
I1
sS'PM10'
p6
I9
sS'NO'
p7
I5
sS'RH'
p8
I11
sS'WS_HR'
p9
I17
sS'WIND_DIREC'
p10
I15
sS'SO2'
p11
I12
sS'NMHC'
p12
I4
sS'PM2.5'
p13
I10
sS'CH4'
p14
I2
sS'NOx'
p15
I7
sS'THC'
p16
I13
sS'O3'
p17
I8
sS'NO2'
p18
I6
s.